target datalayout = "e-m:e-p270:32:32-p271:32:32-p272:64:64-i64:64-i128:128-f80:128-n8:16:32:64-S128"
target triple = "x86_64-pc-linux-gnu"

%"struct.__cxxabiv1::__cxa_exception" = type { ptr, ptr, ptr, ptr, ptr, i32, i32, ptr, ptr, i64, ptr, %struct._Unwind_Exception }
%struct._Unwind_Exception = type { i64, ptr, i64, i64 }
%"class.std::__exception_ptr::exception_ptr" = type { ptr }

; Function Attrs: mustprogress nounwind uwtable
define linkonce_odr noundef zeroext i1 @_ZNKSt15__exception_ptr13exception_ptrcvbEv(ptr noundef nonnull align 8 dereferenceable(8) %0) #0 comdat align 2 {
  %2 = alloca ptr, align 8
  store ptr %0, ptr %2, align 8, !tbaa !28
  %3 = load ptr, ptr %2, align 8
  %4 = getelementptr inbounds nuw %"class.std::__exception_ptr::exception_ptr", ptr %3, i32 0, i32 0
  %5 = load ptr, ptr %4, align 8, !tbaa !39
  %6 = icmp ne ptr %5, null
  ret i1 %6
}

; Function Attrs: mustprogress nounwind uwtable
define noundef ptr @_ZN5folly6detail23exception_ptr_get_type_ERKNSt15__exception_ptr13exception_ptrE(ptr noundef nonnull align 8 dereferenceable(8) %0) #0 {
  %2 = alloca ptr, align 8
  %3 = alloca ptr, align 8
  %4 = alloca ptr, align 8
  %5 = alloca ptr, align 8
  store ptr %0, ptr %3, align 8, !tbaa !28
  %6 = load ptr, ptr %3, align 8, !tbaa !28
  %7 = call noundef zeroext i1 @_ZNKSt15__exception_ptr13exception_ptrcvbEv(ptr noundef nonnull align 8 dereferenceable(8) %6) #20
  br i1 %7, label %9, label %8

8:                                                ; preds = %1
  store ptr null, ptr %2, align 8
  br label %17

9:                                                ; preds = %1
  call void @llvm.lifetime.start.p0(i64 8, ptr %4) #20
  %10 = load ptr, ptr %3, align 8, !tbaa !28
  %11 = load ptr, ptr %10, align 8, !tbaa !30
  store ptr %11, ptr %4, align 8, !tbaa !30
  call void @llvm.lifetime.start.p0(i64 8, ptr %5) #20
  %12 = load ptr, ptr %4, align 8, !tbaa !30
  %13 = getelementptr inbounds %"struct.__cxxabiv1::__cxa_exception", ptr %12, i64 -1
  store ptr %13, ptr %5, align 8, !tbaa !31
  %14 = load ptr, ptr %5, align 8, !tbaa !31
  %15 = getelementptr inbounds nuw %"struct.__cxxabiv1::__cxa_exception", ptr %14, i32 0, i32 0
  %16 = load ptr, ptr %15, align 16, !tbaa !33
  store ptr %16, ptr %2, align 8
  call void @llvm.lifetime.end.p0(i64 8, ptr %5) #20
  call void @llvm.lifetime.end.p0(i64 8, ptr %4) #20
  br label %17

17:                                               ; preds = %9, %8
  %18 = load ptr, ptr %2, align 8
  ret ptr %18
}